; Function Attrs: nounwind uwtable
define hidden range(i32 0, 2) i32 @uv__iou_fs_rename(ptr noundef %0, ptr noundef %1) local_unnamed_addr #0 {
  %3 = getelementptr inbounds nuw i8, ptr %0, i64 40
  %4 = load ptr, ptr %3, align 8
  %5 = getelementptr inbounds nuw i8, ptr %4, i64 320
  %6 = tail call fastcc ptr @uv__iou_get_sqe(ptr noundef nonnull %5, ptr noundef %0, ptr noundef %1)
  %7 = icmp eq ptr %6, null
  br i1 %7, label %uv__iou_submit.exit, label %8

8:                                                ; preds = %2
  %9 = getelementptr inbounds nuw i8, ptr %1, i64 104
  %10 = load ptr, ptr %9, align 8
  %11 = ptrtoint ptr %10 to i64
  %12 = getelementptr inbounds nuw i8, ptr %6, i64 16
  store i64 %11, ptr %12, align 8
  %13 = getelementptr inbounds nuw i8, ptr %6, i64 4
  store i32 -100, ptr %13, align 4
  %14 = getelementptr inbounds nuw i8, ptr %1, i64 272
  %15 = load ptr, ptr %14, align 8
  %16 = ptrtoint ptr %15 to i64
  %17 = getelementptr inbounds nuw i8, ptr %6, i64 8
  store i64 %16, ptr %17, align 8
  %18 = getelementptr inbounds nuw i8, ptr %6, i64 24
  store i32 -100, ptr %18, align 8
  store i8 35, ptr %6, align 8
  %19 = getelementptr inbounds nuw i8, ptr %4, i64 328
  %20 = load ptr, ptr %19, align 8
  %21 = load i32, ptr %20, align 4
  %22 = add i32 %21, 1
  store atomic i32 %22, ptr %20 release, align 4
  %23 = getelementptr inbounds nuw i8, ptr %4, i64 344
  %24 = load ptr, ptr %23, align 8
  %25 = load atomic i32, ptr %24 acquire, align 4
  %26 = and i32 %25, 1
  %.not.i = icmp eq i32 %26, 0
  br i1 %.not.i, label %uv__iou_submit.exit, label %27

27:                                               ; preds = %8
  %28 = getelementptr inbounds nuw i8, ptr %4, i64 432
  %29 = load i32, ptr %28, align 8
  %30 = tail call i64 (i64, ...) @syscall(i64 noundef 426, i32 noundef %29, i32 noundef 0, i32 noundef 0, i32 noundef 2, ptr noundef null, i64 noundef 0) #17
  %31 = and i64 %30, 4294967295
  %.not6.i = icmp eq i64 %31, 0
  br i1 %.not6.i, label %uv__iou_submit.exit, label %32

32:                                               ; preds = %27
  %33 = tail call ptr @__errno_location() #19
  %34 = load i32, ptr %33, align 4
  %.not7.i = icmp eq i32 %34, 130
  br i1 %.not7.i, label %uv__iou_submit.exit, label %35

35:                                               ; preds = %32
  tail call void @perror(ptr noundef nonnull @.str.25) #21
  br label %uv__iou_submit.exit

uv__iou_submit.exit:                              ; preds = %35, %32, %27, %8, %2
  %.0 = phi i32 [ 0, %2 ], [ 1, %8 ], [ 1, %27 ], [ 1, %32 ], [ 1, %35 ]
  ret i32 %.0
}